target datalayout = "e-m:e-p270:32:32-p271:32:32-p272:64:64-i64:64-i128:128-f80:128-n8:16:32:64-S128"
target triple = "x86_64-pc-linux-gnu"

; Function Attrs: nounwind uwtable
define internal zeroext i1 @is_end_with(ptr noundef %0, ptr noundef %1) #0 {
  %3 = alloca i1, align 1
  %4 = alloca ptr, align 8
  %5 = alloca ptr, align 8
  %6 = alloca i64, align 8
  %7 = alloca i64, align 8
  %8 = alloca i32, align 4
  store ptr %0, ptr %4, align 8, !tbaa !36
  store ptr %1, ptr %5, align 8, !tbaa !36
  %9 = load ptr, ptr %4, align 8, !tbaa !36
  %10 = icmp eq ptr %9, null
  br i1 %10, label %14, label %11

11:                                               ; preds = %2
  %12 = load ptr, ptr %5, align 8, !tbaa !36
  %13 = icmp eq ptr %12, null
  br i1 %13, label %14, label %15

14:                                               ; preds = %11, %2
  store i1 false, ptr %3, align 1
  br label %56

15:                                               ; preds = %11
  call void @llvm.lifetime.start.p0(i64 8, ptr %6) #5
  %16 = load ptr, ptr %4, align 8, !tbaa !36
  %17 = call i64 @lv_strlen(ptr noundef %16)
  store i64 %17, ptr %6, align 8, !tbaa !45
  call void @llvm.lifetime.start.p0(i64 8, ptr %7) #5
  %18 = load ptr, ptr %5, align 8, !tbaa !36
  %19 = call i64 @lv_strlen(ptr noundef %18)
  store i64 %19, ptr %7, align 8, !tbaa !45
  %20 = load i64, ptr %6, align 8, !tbaa !45
  %21 = load i64, ptr %7, align 8, !tbaa !45
  %22 = icmp ult i64 %20, %21
  br i1 %22, label %29, label %23

23:                                               ; preds = %15
  %24 = load i64, ptr %6, align 8, !tbaa !45
  %25 = icmp eq i64 %24, 0
  br i1 %25, label %29, label %26

26:                                               ; preds = %23
  %27 = load i64, ptr %7, align 8, !tbaa !45
  %28 = icmp eq i64 %27, 0
  br i1 %28, label %29, label %30

29:                                               ; preds = %26, %23, %15
  store i1 false, ptr %3, align 1
  store i32 1, ptr %8, align 4
  br label %55

30:                                               ; preds = %26
  br label %31

31:                                               ; preds = %49, %30
  %32 = load i64, ptr %7, align 8, !tbaa !45
  %33 = icmp uge i64 %32, 1
  br i1 %33, label %34, label %54

34:                                               ; preds = %31
  %35 = load ptr, ptr %5, align 8, !tbaa !36
  %36 = load i64, ptr %7, align 8, !tbaa !45
  %37 = sub i64 %36, 1
  %38 = getelementptr inbounds nuw i8, ptr %35, i64 %37
  %39 = load i8, ptr %38, align 1, !tbaa !44
  %40 = sext i8 %39 to i32
  %41 = load ptr, ptr %4, align 8, !tbaa !36
  %42 = load i64, ptr %6, align 8, !tbaa !45
  %43 = sub i64 %42, 1
  %44 = getelementptr inbounds nuw i8, ptr %41, i64 %43
  %45 = load i8, ptr %44, align 1, !tbaa !44
  %46 = sext i8 %45 to i32
  %47 = icmp ne i32 %40, %46
  br i1 %47, label %48, label %49

48:                                               ; preds = %34
  store i1 false, ptr %3, align 1
  store i32 1, ptr %8, align 4
  br label %55

49:                                               ; preds = %34
  %50 = load i64, ptr %7, align 8, !tbaa !45
  %51 = add i64 %50, -1
  store i64 %51, ptr %7, align 8, !tbaa !45
  %52 = load i64, ptr %6, align 8, !tbaa !45
  %53 = add i64 %52, -1
  store i64 %53, ptr %6, align 8, !tbaa !45
  br label %31, !llvm.loop !53

54:                                               ; preds = %31
  store i1 true, ptr %3, align 1
  store i32 1, ptr %8, align 4
  br label %55

55:                                               ; preds = %54, %48, %29
  call void @llvm.lifetime.end.p0(i64 8, ptr %7) #5
  call void @llvm.lifetime.end.p0(i64 8, ptr %6) #5
  br label %56

56:                                               ; preds = %55, %14
  %57 = load i1, ptr %3, align 1
  ret i1 %57
}