; Function Attrs: nounwind uwtable
define internal fastcc noundef zeroext i1 @is_end_with(ptr noundef nonnull %0, ptr noundef %1) unnamed_addr #0 {
  %3 = icmp eq ptr %1, null
  br i1 %3, label %.loopexit, label %4

4:                                                ; preds = %2
  %5 = tail call i64 @lv_strlen(ptr noundef nonnull %0) #6
  %6 = tail call i64 @lv_strlen(ptr noundef nonnull %1) #6
  %7 = add i64 %6, -1
  %.not = icmp ult i64 %7, %5
  br i1 %.not, label %.lr.ph.preheader, label %.loopexit

.lr.ph.preheader:                                 ; preds = %4
  %invariant.gep = getelementptr i8, ptr %1, i64 -1
  %invariant.gep28 = getelementptr i8, ptr %0, i64 -1
  br label %.lr.ph

.lr.ph:                                           ; preds = %.lr.ph.preheader, %10
  %.032 = phi i64 [ %11, %10 ], [ %6, %.lr.ph.preheader ]
  %.02031 = phi i64 [ %12, %10 ], [ %5, %.lr.ph.preheader ]
  %gep = getelementptr i8, ptr %invariant.gep, i64 %.032
  %8 = load i8, ptr %gep, align 1, !tbaa !32
  %gep29 = getelementptr i8, ptr %invariant.gep28, i64 %.02031
  %9 = load i8, ptr %gep29, align 1, !tbaa !32
  %.not27 = icmp eq i8 %8, %9
  br i1 %.not27, label %10, label %.loopexit

10:                                               ; preds = %.lr.ph
  %11 = add i64 %.032, -1
  %12 = add i64 %.02031, -1
  %.not26 = icmp eq i64 %11, 0
  br i1 %.not26, label %.loopexit, label %.lr.ph, !llvm.loop !33

.loopexit:                                        ; preds = %10, %.lr.ph, %4, %2
  %.021 = phi i1 [ false, %2 ], [ false, %4 ], [ %.not27, %.lr.ph ], [ %.not27, %10 ]
  ret i1 %.021
}